target datalayout = "e-m:e-p270:32:32-p271:32:32-p272:64:64-i64:64-i128:128-f80:128-n8:16:32:64-S128"
target triple = "x86_64-pc-linux-gnu"

%struct.gres_device_t = type { i32, i32, %struct.gres_device_id_t, i32, ptr, ptr }
%struct.gres_device_id_t = type { i32, i32, i32 }

@.str.1 = private unnamed_addr constant [7 x i8] c"gres.c\00", align 1
@.str.85 = private unnamed_addr constant [11 x i8] c"%s: failed\00", align 1
@__func__._gres_device_unpack = private unnamed_addr constant [20 x i8] c"_gres_device_unpack\00", align 1

; Function Attrs: nounwind uwtable
define dso_local void @destroy_gres_device(ptr noundef %0) #0 {
  %2 = alloca ptr, align 8
  %3 = alloca ptr, align 8
  %4 = alloca i32, align 4
  store ptr %0, ptr %2, align 8
  call void @llvm.lifetime.start.p0(i64 8, ptr %3) #11
  %5 = load ptr, ptr %2, align 8
  store ptr %5, ptr %3, align 8
  %6 = load ptr, ptr %3, align 8
  %7 = icmp ne ptr %6, null
  br i1 %7, label %9, label %8

8:                                                ; preds = %1
  store i32 1, ptr %4, align 4
  br label %14

9:                                                ; preds = %1
  %10 = load ptr, ptr %3, align 8
  %11 = getelementptr inbounds nuw %struct.gres_device_t, ptr %10, i32 0, i32 4
  call void @slurm_xfree(ptr noundef %11)
  %12 = load ptr, ptr %3, align 8
  %13 = getelementptr inbounds nuw %struct.gres_device_t, ptr %12, i32 0, i32 5
  call void @slurm_xfree(ptr noundef %13)
  call void @slurm_xfree(ptr noundef %3)
  store i32 0, ptr %4, align 4
  br label %14

14:                                               ; preds = %9, %8
  call void @llvm.lifetime.end.p0(i64 8, ptr %3) #11
  %15 = load i32, ptr %4, align 4
  switch i32 %15, label %17 [
    i32 0, label %16
    i32 1, label %16
  ]

16:                                               ; preds = %14, %14
  ret void

17:                                               ; preds = %14
  unreachable
}

; Function Attrs: nounwind uwtable
define internal i32 @_gres_device_unpack(ptr noundef %0, i16 noundef zeroext %1, ptr noundef %2) #0 {
  %4 = alloca i32, align 4
  %5 = alloca ptr, align 8
  %6 = alloca i16, align 2
  %7 = alloca ptr, align 8
  %8 = alloca i32, align 4
  %9 = alloca ptr, align 8
  %10 = alloca i32, align 4
  %11 = alloca i32, align 4
  %12 = alloca i32, align 4
  store ptr %0, ptr %5, align 8
  store i16 %1, ptr %6, align 2
  store ptr %2, ptr %7, align 8
  call void @llvm.lifetime.start.p0(i64 4, ptr %8) #11
  store i32 0, ptr %8, align 4
  call void @llvm.lifetime.start.p0(i64 8, ptr %9) #11
  %13 = call ptr @slurm_xcalloc(i64 noundef 1, i64 noundef 40, i1 noundef zeroext true, i1 noundef zeroext false, ptr noundef @.str.1, i32 noundef 10715, ptr noundef @__func__._gres_device_unpack)
  store ptr %13, ptr %9, align 8
  br label %14

14:                                               ; preds = %3
  %15 = load ptr, ptr %7, align 8
  %16 = call i32 @unpack32(ptr noundef %8, ptr noundef %15)
  %17 = icmp ne i32 %16, 0
  br i1 %17, label %18, label %19

18:                                               ; preds = %14
  br label %100

19:                                               ; preds = %14
  br label %20

20:                                               ; preds = %19
  br label %21

21:                                               ; preds = %20
  %22 = load i32, ptr %8, align 4
  %23 = load ptr, ptr %9, align 8
  %24 = getelementptr inbounds nuw %struct.gres_device_t, ptr %23, i32 0, i32 0
  store i32 %22, ptr %24, align 8
  br label %25

25:                                               ; preds = %21
  %26 = load ptr, ptr %7, align 8
  %27 = call i32 @unpack32(ptr noundef %8, ptr noundef %26)
  %28 = icmp ne i32 %27, 0
  br i1 %28, label %29, label %30

29:                                               ; preds = %25
  br label %100

30:                                               ; preds = %25
  br label %31

31:                                               ; preds = %30
  br label %32

32:                                               ; preds = %31
  %33 = load i32, ptr %8, align 4
  %34 = load ptr, ptr %9, align 8
  %35 = getelementptr inbounds nuw %struct.gres_device_t, ptr %34, i32 0, i32 3
  store i32 %33, ptr %35, align 4
  br label %36

36:                                               ; preds = %32
  %37 = load ptr, ptr %7, align 8
  %38 = call i32 @unpack32(ptr noundef %8, ptr noundef %37)
  %39 = icmp ne i32 %38, 0
  br i1 %39, label %40, label %41

40:                                               ; preds = %36
  br label %100

41:                                               ; preds = %36
  br label %42

42:                                               ; preds = %41
  br label %43

43:                                               ; preds = %42
  %44 = load i32, ptr %8, align 4
  %45 = load ptr, ptr %9, align 8
  %46 = getelementptr inbounds nuw %struct.gres_device_t, ptr %45, i32 0, i32 2
  %47 = getelementptr inbounds nuw %struct.gres_device_id_t, ptr %46, i32 0, i32 2
  store i32 %44, ptr %47, align 8
  br label %48

48:                                               ; preds = %43
  %49 = load ptr, ptr %7, align 8
  %50 = call i32 @unpack32(ptr noundef %8, ptr noundef %49)
  %51 = icmp ne i32 %50, 0
  br i1 %51, label %52, label %53

52:                                               ; preds = %48
  br label %100

53:                                               ; preds = %48
  br label %54

54:                                               ; preds = %53
  br label %55

55:                                               ; preds = %54
  %56 = load i32, ptr %8, align 4
  %57 = load ptr, ptr %9, align 8
  %58 = getelementptr inbounds nuw %struct.gres_device_t, ptr %57, i32 0, i32 2
  %59 = getelementptr inbounds nuw %struct.gres_device_id_t, ptr %58, i32 0, i32 0
  store i32 %56, ptr %59, align 8
  br label %60

60:                                               ; preds = %55
  %61 = load ptr, ptr %7, align 8
  %62 = call i32 @unpack32(ptr noundef %8, ptr noundef %61)
  %63 = icmp ne i32 %62, 0
  br i1 %63, label %64, label %65

64:                                               ; preds = %60
  br label %100

65:                                               ; preds = %60
  br label %66

66:                                               ; preds = %65
  br label %67

67:                                               ; preds = %66
  %68 = load i32, ptr %8, align 4
  %69 = load ptr, ptr %9, align 8
  %70 = getelementptr inbounds nuw %struct.gres_device_t, ptr %69, i32 0, i32 2
  %71 = getelementptr inbounds nuw %struct.gres_device_id_t, ptr %70, i32 0, i32 1
  store i32 %68, ptr %71, align 4
  br label %72

72:                                               ; preds = %67
  call void @llvm.lifetime.start.p0(i64 4, ptr %10) #11
  %73 = load ptr, ptr %9, align 8
  %74 = getelementptr inbounds nuw %struct.gres_device_t, ptr %73, i32 0, i32 4
  %75 = load ptr, ptr %7, align 8
  %76 = call i32 @unpackstr_xmalloc_chooser(ptr noundef %74, ptr noundef %10, ptr noundef %75)
  %77 = icmp ne i32 %76, 0
  br i1 %77, label %78, label %79

78:                                               ; preds = %72
  store i32 4, ptr %11, align 4
  br label %80

79:                                               ; preds = %72
  store i32 0, ptr %11, align 4
  br label %80

80:                                               ; preds = %78, %79
  call void @llvm.lifetime.end.p0(i64 4, ptr %10) #11
  %81 = load i32, ptr %11, align 4
  switch i32 %81, label %103 [
    i32 0, label %82
    i32 4, label %100
  ]

82:                                               ; preds = %80
  br label %83

83:                                               ; preds = %82
  br label %84

84:                                               ; preds = %83
  br label %85

85:                                               ; preds = %84
  call void @llvm.lifetime.start.p0(i64 4, ptr %12) #11
  %86 = load ptr, ptr %9, align 8
  %87 = getelementptr inbounds nuw %struct.gres_device_t, ptr %86, i32 0, i32 5
  %88 = load ptr, ptr %7, align 8
  %89 = call i32 @unpackstr_xmalloc_chooser(ptr noundef %87, ptr noundef %12, ptr noundef %88)
  %90 = icmp ne i32 %89, 0
  br i1 %90, label %91, label %92

91:                                               ; preds = %85
  store i32 4, ptr %11, align 4
  br label %93

92:                                               ; preds = %85
  store i32 0, ptr %11, align 4
  br label %93

93:                                               ; preds = %91, %92
  call void @llvm.lifetime.end.p0(i64 4, ptr %12) #11
  %94 = load i32, ptr %11, align 4
  switch i32 %94, label %103 [
    i32 0, label %95
    i32 4, label %100
  ]

95:                                               ; preds = %93
  br label %96

96:                                               ; preds = %95
  br label %97

97:                                               ; preds = %96
  %98 = load ptr, ptr %9, align 8
  %99 = load ptr, ptr %5, align 8
  store ptr %98, ptr %99, align 8
  store i32 0, ptr %4, align 4
  store i32 1, ptr %11, align 4
  br label %103

100:                                              ; preds = %93, %80, %64, %52, %40, %29, %18
  %101 = call i32 (ptr, ...) @error(ptr noundef @.str.85, ptr noundef @__func__._gres_device_unpack)
  %102 = load ptr, ptr %9, align 8
  call void @destroy_gres_device(ptr noundef %102)
  store i32 -1, ptr %4, align 4
  store i32 1, ptr %11, align 4
  br label %103

103:                                              ; preds = %100, %97, %93, %80
  call void @llvm.lifetime.end.p0(i64 8, ptr %9) #11
  call void @llvm.lifetime.end.p0(i64 4, ptr %8) #11
  %104 = load i32, ptr %4, align 4
  ret i32 %104
}