; Function Attrs: nounwind uwtable
define internal range(i32 -1, 1) i32 @_gres_device_unpack(ptr noundef writeonly captures(none) %0, i16 zeroext %1, ptr noundef %2) #2 {
  %4 = alloca ptr, align 8
  %5 = alloca i32, align 4
  %6 = alloca i32, align 4
  %7 = alloca i32, align 4
  call void @llvm.lifetime.start.p0(i64 4, ptr nonnull %5) #28
  store i32 0, ptr %5, align 4
  %8 = tail call ptr @slurm_xcalloc(i64 noundef 1, i64 noundef 40, i1 noundef zeroext true, i1 noundef zeroext false, ptr noundef nonnull @.str.1, i32 noundef 10715, ptr noundef nonnull @__func__._gres_device_unpack) #28
  %9 = call i32 @unpack32(ptr noundef nonnull %5, ptr noundef %2) #28
  %.not = icmp eq i32 %9, 0
  br i1 %.not, label %10, label %35

10:                                               ; preds = %3
  %11 = load i32, ptr %5, align 4
  store i32 %11, ptr %8, align 8
  %12 = call i32 @unpack32(ptr noundef nonnull %5, ptr noundef %2) #28
  %.not20 = icmp eq i32 %12, 0
  br i1 %.not20, label %13, label %.thread

13:                                               ; preds = %10
  %14 = load i32, ptr %5, align 4
  %15 = getelementptr inbounds nuw i8, ptr %8, i64 20
  store i32 %14, ptr %15, align 4
  %16 = call i32 @unpack32(ptr noundef nonnull %5, ptr noundef %2) #28
  %.not21 = icmp eq i32 %16, 0
  br i1 %.not21, label %17, label %.thread

17:                                               ; preds = %13
  %18 = load i32, ptr %5, align 4
  %19 = getelementptr inbounds nuw i8, ptr %8, i64 16
  store i32 %18, ptr %19, align 8
  %20 = call i32 @unpack32(ptr noundef nonnull %5, ptr noundef %2) #28
  %.not22 = icmp eq i32 %20, 0
  br i1 %.not22, label %21, label %.thread

21:                                               ; preds = %17
  %22 = getelementptr inbounds nuw i8, ptr %8, i64 8
  %23 = load i32, ptr %5, align 4
  store i32 %23, ptr %22, align 8
  %24 = call i32 @unpack32(ptr noundef nonnull %5, ptr noundef %2) #28
  %.not23 = icmp eq i32 %24, 0
  br i1 %.not23, label %25, label %.thread

25:                                               ; preds = %21
  %26 = load i32, ptr %5, align 4
  %27 = getelementptr inbounds nuw i8, ptr %8, i64 12
  store i32 %26, ptr %27, align 4
  call void @llvm.lifetime.start.p0(i64 4, ptr nonnull %6) #28
  %28 = getelementptr inbounds nuw i8, ptr %8, i64 24
  %29 = call i32 @unpackstr_xmalloc_chooser(ptr noundef nonnull %28, ptr noundef nonnull %6, ptr noundef %2) #28
  %.not24 = icmp eq i32 %29, 0
  call void @llvm.lifetime.end.p0(i64 4, ptr nonnull %6) #28
  br i1 %.not24, label %30, label %.thread

30:                                               ; preds = %25
  call void @llvm.lifetime.start.p0(i64 4, ptr nonnull %7) #28
  %31 = getelementptr inbounds nuw i8, ptr %8, i64 32
  %32 = call i32 @unpackstr_xmalloc_chooser(ptr noundef nonnull %31, ptr noundef nonnull %7, ptr noundef %2) #28
  %.not25 = icmp eq i32 %32, 0
  call void @llvm.lifetime.end.p0(i64 4, ptr nonnull %7) #28
  br i1 %.not25, label %33, label %.thread

33:                                               ; preds = %30
  store ptr %8, ptr %0, align 8
  br label %40

.thread:                                          ; preds = %30, %25, %21, %17, %13, %10
  %34 = call i32 (ptr, ...) @error(ptr noundef nonnull @.str.85, ptr noundef nonnull @__func__._gres_device_unpack) #28
  call void @llvm.lifetime.start.p0(i64 8, ptr nonnull %4) #28
  store ptr %8, ptr %4, align 8
  br label %37

35:                                               ; preds = %3
  %36 = call i32 (ptr, ...) @error(ptr noundef nonnull @.str.85, ptr noundef nonnull @__func__._gres_device_unpack) #28
  call void @llvm.lifetime.start.p0(i64 8, ptr nonnull %4) #28
  store ptr %8, ptr %4, align 8
  %.not.i = icmp eq ptr %8, null
  br i1 %.not.i, label %destroy_gres_device.exit, label %37

37:                                               ; preds = %.thread, %35
  %38 = getelementptr inbounds nuw i8, ptr %8, i64 24
  call void @slurm_xfree(ptr noundef nonnull %38) #28
  %39 = getelementptr inbounds nuw i8, ptr %8, i64 32
  call void @slurm_xfree(ptr noundef nonnull %39) #28
  call void @slurm_xfree(ptr noundef nonnull %4) #28
  br label %destroy_gres_device.exit

destroy_gres_device.exit:                         ; preds = %35, %37
  call void @llvm.lifetime.end.p0(i64 8, ptr nonnull %4) #28
  br label %40

40:                                               ; preds = %destroy_gres_device.exit, %33
  %.019 = phi i32 [ -1, %destroy_gres_device.exit ], [ 0, %33 ]
  call void @llvm.lifetime.end.p0(i64 4, ptr nonnull %5) #28
  ret i32 %.019
}